; Function Attrs: mustprogress uwtable
define void @_ZN2cv8img_hash18RadialVarianceHash7getHashEv(ptr dead_on_unwind noalias nonnull writable sret(%"class.cv::Mat") align 8 %0, ptr noundef nonnull readonly align 8 captures(none) dereferenceable(24) %1) local_unnamed_addr #3 align 2 personality ptr @__gxx_personality_v0 {
  %3 = alloca %"class.std::__cxx11::basic_string", align 8
  %4 = alloca %"class.std::allocator.8", align 1
  tail call void @_ZN2cv3MatC1Ev(ptr noundef nonnull align 8 dereferenceable(96) %0) #23
  %5 = getelementptr inbounds nuw i8, ptr %1, i64 8
  %6 = load ptr, ptr %5, align 8, !tbaa !43
  %.not.i = icmp eq ptr %6, null
  br i1 %.not.i, label %7, label %_ZN12_GLOBAL__N_112getLocalImplEPN2cv8img_hash11ImgHashBase11ImgHashImplE.exit

7:                                                ; preds = %2
  call void @llvm.lifetime.start.p0(i64 32, ptr nonnull %3) #23
  call void @llvm.lifetime.start.p0(i64 1, ptr nonnull %4) #23
  invoke void @_ZNSt7__cxx1112basic_stringIcSt11char_traitsIcESaIcEEC2EPKcRKS3_(ptr noundef nonnull align 8 dereferenceable(32) %3, ptr noundef nonnull @.str, ptr noundef nonnull align 1 dereferenceable(1) %4)
          to label %.noexc unwind label %19

.noexc:                                           ; preds = %7
  invoke void @_ZN2cv5errorEiRKNSt7__cxx1112basic_stringIcSt11char_traitsIcESaIcEEEPKcS9_i(i32 noundef -215, ptr noundef nonnull align 8 dereferenceable(32) %3, ptr noundef nonnull @__func__._ZN12_GLOBAL__N_112getLocalImplEPN2cv8img_hash11ImgHashBase11ImgHashImplE, ptr noundef nonnull @.str.1, i32 noundef 293) #24
          to label %8 unwind label %9

8:                                                ; preds = %.noexc
  unreachable

9:                                                ; preds = %.noexc
  %10 = landingpad { ptr, i32 }
          cleanup
  %11 = load ptr, ptr %3, align 8, !tbaa !49
  %12 = getelementptr inbounds nuw i8, ptr %3, i64 16
  %13 = icmp eq ptr %11, %12
  br i1 %13, label %_ZNKSt7__cxx1112basic_stringIcSt11char_traitsIcESaIcEE11_M_is_localEv.exit.thread.i.i.i, label %_ZNKSt7__cxx1112basic_stringIcSt11char_traitsIcESaIcEE11_M_is_localEv.exit.i.i.i

_ZNKSt7__cxx1112basic_stringIcSt11char_traitsIcESaIcEE11_M_is_localEv.exit.thread.i.i.i: ; preds = %9
  %14 = getelementptr inbounds nuw i8, ptr %3, i64 8
  %15 = load i64, ptr %14, align 8, !tbaa !53
  %16 = icmp ult i64 %15, 16
  call void @llvm.assume(i1 %16)
  br label %_ZNSt7__cxx1112basic_stringIcSt11char_traitsIcESaIcEED2Ev.exit.i

_ZNKSt7__cxx1112basic_stringIcSt11char_traitsIcESaIcEE11_M_is_localEv.exit.i.i.i: ; preds = %9
  call void @_ZdlPv(ptr noundef %11) #26
  br label %_ZNSt7__cxx1112basic_stringIcSt11char_traitsIcESaIcEED2Ev.exit.i

_ZNSt7__cxx1112basic_stringIcSt11char_traitsIcESaIcEED2Ev.exit.i: ; preds = %_ZNKSt7__cxx1112basic_stringIcSt11char_traitsIcESaIcEE11_M_is_localEv.exit.i.i.i, %_ZNKSt7__cxx1112basic_stringIcSt11char_traitsIcESaIcEE11_M_is_localEv.exit.thread.i.i.i
  call void @llvm.lifetime.end.p0(i64 1, ptr nonnull %4) #23
  call void @llvm.lifetime.end.p0(i64 32, ptr nonnull %3) #23
  br label %.body

_ZN12_GLOBAL__N_112getLocalImplEPN2cv8img_hash11ImgHashBase11ImgHashImplE.exit: ; preds = %2
  %17 = getelementptr i8, ptr %6, i64 104
  %.val = load ptr, ptr %17, align 8, !tbaa !55
  %18 = getelementptr i8, ptr %6, i64 112
  %.val3 = load ptr, ptr %18, align 8, !tbaa !54
  invoke fastcc void @_ZN12_GLOBAL__N_122RadialVarianceHashImpl13hashCalculateERN2cv3MatE(ptr %.val, ptr %.val3, ptr noundef nonnull align 8 dereferenceable(96) %0)
          to label %21 unwind label %19

19:                                               ; preds = %7, %_ZN12_GLOBAL__N_112getLocalImplEPN2cv8img_hash11ImgHashBase11ImgHashImplE.exit
  %20 = landingpad { ptr, i32 }
          cleanup
  br label %.body

.body:                                            ; preds = %_ZNSt7__cxx1112basic_stringIcSt11char_traitsIcESaIcEED2Ev.exit.i, %19
  %eh.lpad-body = phi { ptr, i32 } [ %20, %19 ], [ %10, %_ZNSt7__cxx1112basic_stringIcSt11char_traitsIcESaIcEED2Ev.exit.i ]
  call void @_ZN2cv3MatD1Ev(ptr noundef nonnull align 8 dereferenceable(96) %0) #23
  resume { ptr, i32 } %eh.lpad-body

21:                                               ; preds = %_ZN12_GLOBAL__N_112getLocalImplEPN2cv8img_hash11ImgHashBase11ImgHashImplE.exit
  ret void
}